; Function Attrs: mustprogress nounwind uwtable
define dso_local noundef i32 @_ZNK5clang7tooling22IncludeCategoryManager22getSortIncludePriorityEN4llvm9StringRefEb(ptr noundef nonnull align 8 dereferenceable(224) %0, ptr %1, i64 %2, i1 noundef zeroext %3) local_unnamed_addr #0 align 2 {
  %5 = getelementptr inbounds nuw i8, ptr %0, i64 144
  %6 = tail call noundef i64 @_ZNK4llvm15SmallVectorBaseIjE4sizeEv(ptr noundef nonnull align 8 dereferenceable(16) %5) #19
  %7 = and i64 %6, 4294967295
  %.not17 = icmp eq i64 %7, 0
  br i1 %.not17, label %.loopexit, label %.lr.ph.preheader

.lr.ph.preheader:                                 ; preds = %4
  %8 = and i64 %6, 4294967295
  br label %.lr.ph

9:                                                ; preds = %.lr.ph
  %indvars.iv.next = add nuw nsw i64 %indvars.iv, 1
  %.not = icmp eq i64 %indvars.iv.next, %8
  br i1 %.not, label %.loopexit, label %.lr.ph, !llvm.loop !13

.lr.ph:                                           ; preds = %.lr.ph.preheader, %9
  %indvars.iv = phi i64 [ 0, %.lr.ph.preheader ], [ %indvars.iv.next, %9 ]
  %10 = load ptr, ptr %5, align 8
  %11 = getelementptr inbounds %"class.llvm::Regex", ptr %10, i64 %indvars.iv
  %12 = tail call noundef zeroext i1 @_ZNK4llvm5Regex5matchENS_9StringRefEPNS_15SmallVectorImplIS1_EEPNSt7__cxx1112basic_stringIcSt11char_traitsIcESaIcEEE(ptr noundef nonnull align 8 dereferenceable(12) %11, ptr %1, i64 %2, ptr noundef null, ptr noundef null) #19
  br i1 %12, label %13, label %9

13:                                               ; preds = %.lr.ph
  %14 = getelementptr inbounds nuw i8, ptr %0, i64 8
  %15 = load ptr, ptr %14, align 8
  %16 = getelementptr inbounds %"struct.clang::tooling::IncludeStyle::IncludeCategory", ptr %15, i64 %indvars.iv
  %17 = getelementptr inbounds nuw i8, ptr %16, i64 36
  %18 = load i32, ptr %17, align 4
  %19 = icmp eq i32 %18, 0
  br i1 %19, label %20, label %.loopexit

20:                                               ; preds = %13
  %21 = getelementptr inbounds nuw i8, ptr %16, i64 32
  %22 = load i32, ptr %21, align 8
  br label %.loopexit

.loopexit:                                        ; preds = %9, %4, %13, %20
  %.0 = phi i32 [ %22, %20 ], [ %18, %13 ], [ 2147483647, %4 ], [ 2147483647, %9 ]
  br i1 %3, label %23, label %30

23:                                               ; preds = %.loopexit
  %24 = getelementptr inbounds nuw i8, ptr %0, i64 104
  %25 = load i8, ptr %24, align 8
  %26 = trunc i8 %25 to i1
  %27 = icmp sgt i32 %.0, 0
  %or.cond = select i1 %26, i1 %27, i1 false
  br i1 %or.cond, label %28, label %30

28:                                               ; preds = %23
  %29 = tail call noundef zeroext i1 @_ZNK5clang7tooling22IncludeCategoryManager12isMainHeaderEN4llvm9StringRefE(ptr noundef nonnull align 8 dereferenceable(224) %0, ptr %1, i64 %2)
  %spec.select = select i1 %29, i32 0, i32 %.0
  br label %30

30:                                               ; preds = %28, %23, %.loopexit
  %.1 = phi i32 [ %.0, %23 ], [ %.0, %.loopexit ], [ %spec.select, %28 ]
  ret i32 %.1
}